; Function Attrs: mustprogress uwtable
define noundef zeroext i1 @_ZN3zmq5req_t7xhas_inEv(ptr noundef nonnull align 8 dereferenceable(1960) %this) unnamed_addr #0 align 2 {
entry:
  %_receiving_reply = getelementptr inbounds i8, ptr %this, i64 1929
  %0 = load i8, ptr %_receiving_reply, align 1
  %1 = and i8 %0, 1
  %tobool.not = icmp eq i8 %1, 0
  br i1 %tobool.not, label %return, label %if.end

if.end:                                           ; preds = %entry
  %call = tail call noundef zeroext i1 @_ZN3zmq8dealer_t7xhas_inEv(ptr noundef nonnull align 8 dereferenceable(1929) %this)
  br label %return

return:                                           ; preds = %entry, %if.end
  %retval.0 = phi i1 [ %call, %if.end ], [ false, %entry ]
  ret i1 %retval.0
}